; Function Attrs: nounwind uwtable
define noundef zeroext i1 @duckdb_je_emap_register_boundary(ptr noundef %0, ptr noundef %1, ptr noundef %2, i32 noundef %3, i1 noundef zeroext %4) local_unnamed_addr #0 {
  %6 = alloca %struct.rtree_ctx_s, align 8
  %7 = alloca ptr, align 8
  %8 = alloca ptr, align 8
  call void @llvm.lifetime.start.p0(i64 384, ptr nonnull %6) #6
  %9 = icmp eq ptr %0, null
  br i1 %9, label %10, label %11, !prof !17

10:                                               ; preds = %5
  call void @duckdb_je_rtree_ctx_data_init(ptr noundef nonnull %6) #6
  br label %tsdn_rtree_ctx.exit

11:                                               ; preds = %5
  %12 = getelementptr inbounds nuw i8, ptr %0, i64 440
  br label %tsdn_rtree_ctx.exit

tsdn_rtree_ctx.exit:                              ; preds = %10, %11
  %.0.i = phi ptr [ %6, %10 ], [ %12, %11 ]
  call void @llvm.lifetime.start.p0(i64 8, ptr nonnull %7) #6
  call void @llvm.lifetime.start.p0(i64 8, ptr nonnull %8) #6
  %13 = call fastcc zeroext i1 @emap_rtree_leaf_elms_lookup(ptr noundef %0, ptr noundef %1, ptr noundef nonnull %.0.i, ptr noundef %2, i1 noundef zeroext false, i1 noundef zeroext true, ptr noundef nonnull %7, ptr noundef nonnull %8)
  br i1 %13, label %emap_rtree_write_acquired.exit, label %14

14:                                               ; preds = %tsdn_rtree_ctx.exit
  %15 = load ptr, ptr %7, align 8, !tbaa !25
  %16 = load ptr, ptr %8, align 8, !tbaa !25
  %17 = icmp eq ptr %2, null
  br i1 %17, label %.critedge.i, label %18

18:                                               ; preds = %14
  %.val.i = load i64, ptr %2, align 8, !tbaa !3
  %sh.diff.i = lshr i64 %.val.i, 43
  %19 = and i64 %sh.diff.i, 2
  %20 = lshr i64 %.val.i, 15
  %21 = and i64 %20, 28
  br label %.critedge.i

.critedge.i:                                      ; preds = %18, %14
  %.sroa.7.0.i = phi i64 [ %19, %18 ], [ 0, %14 ]
  %22 = phi i64 [ %21, %18 ], [ 0, %14 ]
  %23 = ptrtoint ptr %2 to i64
  %24 = and i64 %23, 281474976710655
  %25 = zext i32 %3 to i64
  %26 = shl i64 %25, 48
  %27 = zext i1 %4 to i64
  %28 = or disjoint i64 %22, %26
  %29 = or disjoint i64 %28, %.sroa.7.0.i
  %30 = or disjoint i64 %29, %27
  %31 = or i64 %30, %24
  store atomic i64 %31, ptr %15 release, align 8
  %.not.i = icmp eq ptr %16, null
  br i1 %.not.i, label %emap_rtree_write_acquired.exit, label %32

32:                                               ; preds = %.critedge.i
  store atomic i64 %31, ptr %16 release, align 8
  br label %emap_rtree_write_acquired.exit

emap_rtree_write_acquired.exit:                   ; preds = %32, %.critedge.i, %tsdn_rtree_ctx.exit
  call void @llvm.lifetime.end.p0(i64 8, ptr nonnull %8) #6
  call void @llvm.lifetime.end.p0(i64 8, ptr nonnull %7) #6
  call void @llvm.lifetime.end.p0(i64 384, ptr nonnull %6) #6
  ret i1 %13
}